; Function Attrs: mustprogress uwtable
define hidden noundef ptr @_Z33pj_projection_specific_setup_eck6P8PJconsts(ptr noundef %0) local_unnamed_addr #0 {
  %2 = tail call noalias dereferenceable_or_null(40) ptr @calloc(i64 noundef 1, i64 noundef 40) #6
  %3 = icmp eq ptr %2, null
  br i1 %3, label %4, label %6

4:                                                ; preds = %1
  %5 = tail call noundef ptr @_Z21pj_default_destructorP8PJconstsi(ptr noundef %0, i32 noundef 4096)
  br label %16

6:                                                ; preds = %1
  %7 = getelementptr inbounds nuw i8, ptr %0, i64 88
  store ptr %2, ptr %7, align 8, !tbaa !40
  %8 = getelementptr inbounds nuw i8, ptr %0, i64 152
  store ptr @_ZL21pj_gn_sinu_destructorP8PJconstsi, ptr %8, align 8, !tbaa !41
  %9 = getelementptr inbounds nuw i8, ptr %2, i64 8
  store double 1.000000e+00, ptr %9, align 8, !tbaa !50
  %10 = getelementptr inbounds nuw i8, ptr %2, i64 16
  store double 0x400490FDAA22168C, ptr %10, align 8, !tbaa !49
  %11 = getelementptr inbounds nuw i8, ptr %0, i64 216
  store double 0.000000e+00, ptr %11, align 8, !tbaa !46
  %12 = getelementptr inbounds nuw i8, ptr %0, i64 112
  store ptr @_ZL17gn_sinu_s_inverse5PJ_XYP8PJconsts, ptr %12, align 8, !tbaa !47
  %13 = getelementptr inbounds nuw i8, ptr %0, i64 104
  store ptr @_ZL17gn_sinu_s_forward5PJ_LPP8PJconsts, ptr %13, align 8, !tbaa !48
  %14 = getelementptr inbounds nuw i8, ptr %2, i64 32
  store double 0x3FEC398DA1EB377F, ptr %14, align 8, !tbaa !52
  %15 = getelementptr inbounds nuw i8, ptr %2, i64 24
  store double 0x3FDC398DA1EB377F, ptr %15, align 8, !tbaa !53
  br label %16

16:                                               ; preds = %6, %4
  %.0 = phi ptr [ %5, %4 ], [ %0, %6 ]
  ret ptr %.0
}